target datalayout = "e-m:e-p270:32:32-p271:32:32-p272:64:64-i64:64-i128:128-f80:128-n8:16:32:64-S128"
target triple = "x86_64-pc-linux-gnu"

%class.Effect = type <{ %"class.std::vector", %"class.std::vector", %"class.std::vector", i8, i8, [6 x i8] }>
%"class.std::vector" = type { %"struct.std::_Vector_base" }
%"struct.std::_Vector_base" = type { %"struct.std::_Vector_base<const Variable *, std::allocator<const Variable *>>::_Vector_impl" }
%"struct.std::_Vector_base<const Variable *, std::allocator<const Variable *>>::_Vector_impl" = type { %"struct.std::_Vector_base<const Variable *, std::allocator<const Variable *>>::_Vector_impl_data" }
%"struct.std::_Vector_base<const Variable *, std::allocator<const Variable *>>::_Vector_impl_data" = type { ptr, ptr, ptr }

; Function Attrs: mustprogress uwtable
define dso_local noundef nonnull align 8 dereferenceable(74) ptr @_ZN6EffectaSERKS_(ptr noundef nonnull align 8 dereferenceable(74) %0, ptr noundef nonnull align 8 dereferenceable(74) %1) #4 align 2 {
  %3 = alloca ptr, align 8
  %4 = alloca ptr, align 8
  %5 = alloca ptr, align 8
  store ptr %0, ptr %4, align 8, !tbaa !4
  store ptr %1, ptr %5, align 8, !tbaa !4
  %6 = load ptr, ptr %4, align 8
  %7 = load ptr, ptr %5, align 8, !tbaa !4
  %8 = icmp eq ptr %6, %7
  br i1 %8, label %9, label %10

9:                                                ; preds = %2
  store ptr %6, ptr %3, align 8
  br label %31

10:                                               ; preds = %2
  %11 = load ptr, ptr %5, align 8, !tbaa !4
  %12 = getelementptr inbounds nuw %class.Effect, ptr %11, i32 0, i32 0
  %13 = getelementptr inbounds nuw %class.Effect, ptr %6, i32 0, i32 0
  %14 = call noundef nonnull align 8 dereferenceable(24) ptr @_ZNSt6vectorIPK8VariableSaIS2_EEaSERKS4_(ptr noundef nonnull align 8 dereferenceable(24) %13, ptr noundef nonnull align 8 dereferenceable(24) %12)
  %15 = load ptr, ptr %5, align 8, !tbaa !4
  %16 = getelementptr inbounds nuw %class.Effect, ptr %15, i32 0, i32 1
  %17 = getelementptr inbounds nuw %class.Effect, ptr %6, i32 0, i32 1
  %18 = call noundef nonnull align 8 dereferenceable(24) ptr @_ZNSt6vectorIPK8VariableSaIS2_EEaSERKS4_(ptr noundef nonnull align 8 dereferenceable(24) %17, ptr noundef nonnull align 8 dereferenceable(24) %16)
  %19 = load ptr, ptr %5, align 8, !tbaa !4
  %20 = getelementptr inbounds nuw %class.Effect, ptr %19, i32 0, i32 3
  %21 = load i8, ptr %20, align 8, !tbaa !9, !range !26, !noundef !27
  %22 = trunc i8 %21 to i1
  %23 = getelementptr inbounds nuw %class.Effect, ptr %6, i32 0, i32 3
  %24 = zext i1 %22 to i8
  store i8 %24, ptr %23, align 8, !tbaa !9
  %25 = load ptr, ptr %5, align 8, !tbaa !4
  %26 = getelementptr inbounds nuw %class.Effect, ptr %25, i32 0, i32 4
  %27 = load i8, ptr %26, align 1, !tbaa !17, !range !26, !noundef !27
  %28 = trunc i8 %27 to i1
  %29 = getelementptr inbounds nuw %class.Effect, ptr %6, i32 0, i32 4
  %30 = zext i1 %28 to i8
  store i8 %30, ptr %29, align 1, !tbaa !17
  store ptr %6, ptr %3, align 8
  br label %31

31:                                               ; preds = %10, %9
  %32 = load ptr, ptr %3, align 8
  ret ptr %32
}