; Function Attrs: mustprogress uwtable
define dso_local noundef nonnull align 8 dereferenceable(74) ptr @_ZN6EffectaSERKS_(ptr noundef nonnull returned align 8 dereferenceable(74) %0, ptr noundef nonnull align 8 dereferenceable(74) %1) local_unnamed_addr #5 align 2 {
  %3 = icmp eq ptr %0, %1
  br i1 %3, label %15, label %4

4:                                                ; preds = %2
  %5 = tail call noundef nonnull align 8 dereferenceable(24) ptr @_ZNSt6vectorIPK8VariableSaIS2_EEaSERKS4_(ptr noundef nonnull align 8 dereferenceable(24) %0, ptr noundef nonnull align 8 dereferenceable(24) %1)
  %6 = getelementptr inbounds nuw i8, ptr %1, i64 24
  %7 = getelementptr inbounds nuw i8, ptr %0, i64 24
  %8 = tail call noundef nonnull align 8 dereferenceable(24) ptr @_ZNSt6vectorIPK8VariableSaIS2_EEaSERKS4_(ptr noundef nonnull align 8 dereferenceable(24) %7, ptr noundef nonnull align 8 dereferenceable(24) %6)
  %9 = getelementptr inbounds nuw i8, ptr %1, i64 72
  %10 = load i8, ptr %9, align 8, !tbaa !4, !range !21, !noundef !22
  %11 = getelementptr inbounds nuw i8, ptr %0, i64 72
  store i8 %10, ptr %11, align 8, !tbaa !4
  %12 = getelementptr inbounds nuw i8, ptr %1, i64 73
  %13 = load i8, ptr %12, align 1, !tbaa !15, !range !21, !noundef !22
  %14 = getelementptr inbounds nuw i8, ptr %0, i64 73
  store i8 %13, ptr %14, align 1, !tbaa !15
  br label %15

15:                                               ; preds = %2, %4
  ret ptr %0
}